(dp1
S'files'
p2
(dp3
S'_Program Files_PyScripter_Lib_rpyc_zip_rpyc_core_async'
p4
(dp5
S'index'
p6
(dp7
S'html_filename'
p8
S'_Program Files_PyScripter_Lib_rpyc_zip_rpyc_core_async.html'
p9
sS'name'
p10
S'C:\\Program Files\\PyScripter\\Lib\\rpyc.zip\\rpyc\\core\\async'
p11
sS'nums'
p12
ccopy_reg
_reconstructor
p13
(ccoverage.results
Numbers
p14
c__builtin__
object
p15
NtRp16
(dp17
S'n_files'
p18
I1
sS'n_branches'
p19
I0
sS'n_statements'
p20
I70
sS'n_excluded'
p21
I0
sS'n_partial_branches'
p22
I0
sS'n_missing'
p23
I56
sS'n_missing_branches'
p24
I0
sbssS'hash'
p25
S'E\xc8A\x15\xe4\xd1\x91\xe5w\x86|k\xdc\xfcV\x85'
p26
ssS'_Program Files_PyScripter_Lib_rpyc_zip_rpyc_core_channel'
p27
(dp28
g6
(dp29
g8
S'_Program Files_PyScripter_Lib_rpyc_zip_rpyc_core_channel.html'
p30
sg10
S'C:\\Program Files\\PyScripter\\Lib\\rpyc.zip\\rpyc\\core\\channel'
p31
sg12
g13
(g14
g15
NtRp32
(dp33
g18
I1
sg19
I0
sg20
I37
sg21
I0
sg22
I0
sg23
I26
sg24
I0
sbssg25
S'\xe8\x01\x94\xe0\x97\xbdl\xc7\x80\x8d\xb5ZLV\x0b\x85'
p34
ssS'test_recursive_solver'
p35
(dp36
g6
(dp37
g8
S'test_recursive_solver.html'
p38
sg10
g35
sg12
g13
(g14
g15
NtRp39
(dp40
g18
I1
sg19
I0
sg20
I42
sg21
I0
sg22
I0
sg23
I1
sg24
I0
sbssg25
S'T\x08%\x92\x8c\xe8\x0f\x0e\xf5\xd0>\xa9\x92(\r\x0b'
p41
ssS'UT_algoritmo_peter_norving'
p42
(dp43
g6
(dp44
g8
S'UT_algoritmo_peter_norving.html'
p45
sg10
g42
sg12
g13
(g14
g15
NtRp46
(dp47
g18
I1
sg19
I0
sg20
I46
sg21
I0
sg22
I0
sg23
I2
sg24
I0
sbssg25
S'\xd8#\x85\x9aQr\xfeW\xea\r\xe0\x8f,S\x89\x86'
p48
ssS'recursive'
p49
(dp50
g6
(dp51
g8
S'recursive.html'
p52
sg10
g49
sg12
g13
(g14
g15
NtRp53
(dp54
g18
I1
sg19
I0
sg20
I69
sg21
I0
sg22
I0
sg23
I4
sg24
I0
sbssg25
S'\xec\x9b\xfeiK\\\xda\x87\xb2\x7f\xa0\xdfw\xc5\x92i'
p55
ssS'test_sudoku'
p56
(dp57
g6
(dp58
g8
S'test_sudoku.html'
p59
sg10
g56
sg12
g13
(g14
g15
NtRp60
(dp61
g18
I1
sg19
I0
sg20
I31
sg21
I0
sg22
I0
sg23
I0
sg24
I0
sbssg25
S'\xde\xc5\xf6\x1eB\xe1\x80\x8ap\xf0<\xbbq\x18\x88\xd0'
p62
ssS'_Program Files (x86)_PyScripter_Lib_rpyc_zip_rpyc_core_stream'
p63
(dp64
S'index'
p65
(dp66
S'html_filename'
p67
S'_Program Files (x86)_PyScripter_Lib_rpyc_zip_rpyc_core_stream.html'
p68
sS'name'
p69
S'C:\\Program Files (x86)\\PyScripter\\Lib\\rpyc.zip\\rpyc\\core\\stream'
p70
sS'nums'
p71
g13
(g14
g15
NtRp72
(dp73
g18
I1
sg19
I0
sg20
I291
sg21
I0
sg22
I0
sg23
I275
sg24
I0
sbssS'hash'
p74
S'\xa3"\x14h\xf0B\x98\x1f\xb7\xc5\xf3\x7f\xf2-\xc0\x17'
p75
ssS'_Program Files (x86)_PyScripter_Lib_rpyc_zip_rpyc_core_async'
p76
(dp77
g65
(dp78
g67
S'_Program Files (x86)_PyScripter_Lib_rpyc_zip_rpyc_core_async.html'
p79
sg69
S'C:\\Program Files (x86)\\PyScripter\\Lib\\rpyc.zip\\rpyc\\core\\async'
p80
sg71
g13
(g14
g15
NtRp81
(dp82
g18
I1
sg19
I0
sg20
I70
sg21
I0
sg22
I0
sg23
I56
sg24
I0
sbssg74
S'E\xc8A\x15\xe4\xd1\x91\xe5w\x86|k\xdc\xfcV\x85'
p83
ssS'_Program Files (x86)_PyScripter_Lib_rpyc_zip_rpyc_core_brine'
p84
(dp85
g65
(dp86
g67
S'_Program Files (x86)_PyScripter_Lib_rpyc_zip_rpyc_core_brine.html'
p87
sg69
S'C:\\Program Files (x86)\\PyScripter\\Lib\\rpyc.zip\\rpyc\\core\\brine'
p88
sg71
g13
(g14
g15
NtRp89
(dp90
g18
I1
sg19
I0
sg20
I232
sg21
I0
sg22
I0
sg23
I184
sg24
I0
sbssg74
S'\x98\xc9N\x1a\r\n\xf0\x0f\xfed\x1c\xb5P\xf7Lt'
p91
ssS'_Program Files_PyScripter_Lib_rpyc_zip_rpyc_lib_compat'
p92
(dp93
g6
(dp94
g8
S'_Program Files_PyScripter_Lib_rpyc_zip_rpyc_lib_compat.html'
p95
sg10
S'C:\\Program Files\\PyScripter\\Lib\\rpyc.zip\\rpyc\\lib\\compat'
p96
sg12
g13
(g14
g15
NtRp97
(dp98
g18
I1
sg19
I0
sg20
I112
sg21
I0
sg22
I0
sg23
I111
sg24
I0
sbssg25
S'\xe0\xbb\xe2\x88\xbe\xa4\x8e(>"\xf5\xf4]\xb8\xc0\xdd'
p99
ssS'test_peter_algorithm'
p100
(dp101
S'index'
p102
(dp103
S'html_filename'
p104
S'test_peter_algorithm.html'
p105
sS'name'
p106
g100
sS'nums'
p107
g13
(g14
g15
NtRp108
(dp109
g18
I1
sg19
I0
sg20
I45
sg21
I0
sg22
I0
sg23
I1
sg24
I0
sbssS'hash'
p110
S'\xcd-fx*&u:\xef\xc6B\xea\xb7\x9e\xc1\xb9'
p111
ssS'_Program Files_PyScripter_Lib_rpyc_zip_rpyc_core_brine'
p112
(dp113
g6
(dp114
g8
S'_Program Files_PyScripter_Lib_rpyc_zip_rpyc_core_brine.html'
p115
sg10
S'C:\\Program Files\\PyScripter\\Lib\\rpyc.zip\\rpyc\\core\\brine'
p116
sg12
g13
(g14
g15
NtRp117
(dp118
g18
I1
sg19
I0
sg20
I232
sg21
I0
sg22
I0
sg23
I184
sg24
I0
sbssg25
S'\x98\xc9N\x1a\r\n\xf0\x0f\xfed\x1c\xb5P\xf7Lt'
p119
ssS'_Program Files_PyScripter_Lib_rpyc_zip_rpyc_core_netref'
p120
(dp121
g6
(dp122
g8
S'_Program Files_PyScripter_Lib_rpyc_zip_rpyc_core_netref.html'
p123
sg10
S'C:\\Program Files\\PyScripter\\Lib\\rpyc.zip\\rpyc\\core\\netref'
p124
sg12
g13
(g14
g15
NtRp125
(dp126
g18
I1
sg19
I0
sg20
I140
sg21
I0
sg22
I0
sg23
I121
sg24
I0
sbssg25
S'\xfc\xc9\x11`2\x96\x1f\xe2\xfd\xc0\x88\x14o2T&'
p127
ssS'_Program Files (x86)_PyScripter_Lib_rpyc_zip_rpyc_core_netref'
p128
(dp129
g65
(dp130
g67
S'_Program Files (x86)_PyScripter_Lib_rpyc_zip_rpyc_core_netref.html'
p131
sg69
S'C:\\Program Files (x86)\\PyScripter\\Lib\\rpyc.zip\\rpyc\\core\\netref'
p132
sg71
g13
(g14
g15
NtRp133
(dp134
g18
I1
sg19
I0
sg20
I140
sg21
I0
sg22
I0
sg23
I121
sg24
I0
sbssg74
S'\xfc\xc9\x11`2\x96\x1f\xe2\xfd\xc0\x88\x14o2T&'
p135
ssS'sudokustr'
p136
(dp137
g6
(dp138
S'html_filename'
p139
S'sudokustr.html'
p140
sS'name'
p141
S'sudokustr'
p142
sS'nums'
p143
g13
(g14
g15
NtRp144
(dp145
g18
I1
sg19
I0
sg20
I34
sg21
I0
sg22
I0
sg23
I3
sg24
I0
sbssg25
S"8\x16\xfa9\x8d\xfc\x80+$1l'\xe1x\x17\xa2"
p146
ssS'_Program Files (x86)_PyScripter_Lib_rpyc_zip_rpyc_lib_compat'
p147
(dp148
g65
(dp149
g67
S'_Program Files (x86)_PyScripter_Lib_rpyc_zip_rpyc_lib_compat.html'
p150
sg69
S'C:\\Program Files (x86)\\PyScripter\\Lib\\rpyc.zip\\rpyc\\lib\\compat'
p151
sg71
g13
(g14
g15
NtRp152
(dp153
g18
I1
sg19
I0
sg20
I112
sg21
I0
sg22
I0
sg23
I111
sg24
I0
sbssg74
S'\xe0\xbb\xe2\x88\xbe\xa4\x8e(>"\xf5\xf4]\xb8\xc0\xdd'
p154
ssS'print_solve_game'
p155
(dp156
g6
(dp157
g67
S'print_solve_game.html'
p158
sg69
S'print_solve_game'
p159
sg71
g13
(g14
g15
NtRp160
(dp161
g18
I1
sg19
I0
sg20
I36
sg21
I0
sg22
I0
sg23
I2
sg24
I0
sbssg25
S'\xf8\xdb\x16+\xeb\xb4KmT6O\x07\x02\xd75\xdf'
p162
ssS'_Program Files (x86)_PyScripter_Lib_rpyc_zip_rpyc_core_protocol'
p163
(dp164
g65
(dp165
g67
S'_Program Files (x86)_PyScripter_Lib_rpyc_zip_rpyc_core_protocol.html'
p166
sg69
S'C:\\Program Files (x86)\\PyScripter\\Lib\\rpyc.zip\\rpyc\\core\\protocol'
p167
sg71
g13
(g14
g15
NtRp168
(dp169
g18
I1
sg19
I0
sg20
I346
sg21
I0
sg22
I0
sg23
I286
sg24
I0
sbssg74
S'1\xda\xd4\x12\xc2\x1d\xd5\x9f%\xd0\xb1HD[RG'
p170
ssS'_Program Files_PyScripter_Lib_rpyc_zip_rpyc_core_protocol'
p171
(dp172
g6
(dp173
g8
S'_Program Files_PyScripter_Lib_rpyc_zip_rpyc_core_protocol.html'
p174
sg10
S'C:\\Program Files\\PyScripter\\Lib\\rpyc.zip\\rpyc\\core\\protocol'
p175
sg12
g13
(g14
g15
NtRp176
(dp177
g18
I1
sg19
I0
sg20
I346
sg21
I0
sg22
I0
sg23
I286
sg24
I0
sbssg25
S'1\xda\xd4\x12\xc2\x1d\xd5\x9f%\xd0\xb1HD[RG'
p178
ssS'_Program Files_PyScripter_Lib_rpyc_zip_rpyc_lib_colls'
p179
(dp180
g6
(dp181
g8
S'_Program Files_PyScripter_Lib_rpyc_zip_rpyc_lib_colls.html'
p182
sg10
S'C:\\Program Files\\PyScripter\\Lib\\rpyc.zip\\rpyc\\lib\\colls'
p183
sg12
g13
(g14
g15
NtRp184
(dp185
g18
I1
sg19
I0
sg20
I86
sg21
I0
sg22
I0
sg23
I78
sg24
I0
sbssg25
S'\x7f|\xdc)\xadR,I\x9d\x1a\xaeC7]s\xd6'
p186
ssS'_Program Files_PyScripter_Lib_rpyc_zip_rpyc_core_stream'
p187
(dp188
g6
(dp189
g8
S'_Program Files_PyScripter_Lib_rpyc_zip_rpyc_core_stream.html'
p190
sg10
S'C:\\Program Files\\PyScripter\\Lib\\rpyc.zip\\rpyc\\core\\stream'
p191
sg12
g13
(g14
g15
NtRp192
(dp193
g18
I1
sg19
I0
sg20
I291
sg21
I0
sg22
I0
sg23
I275
sg24
I0
sbssg25
S'\xa3"\x14h\xf0B\x98\x1f\xb7\xc5\xf3\x7f\xf2-\xc0\x17'
p194
ssS'_Program Files (x86)_PyScripter_Lib_rpyc_zip_rpyc_lib_colls'
p195
(dp196
g65
(dp197
g67
S'_Program Files (x86)_PyScripter_Lib_rpyc_zip_rpyc_lib_colls.html'
p198
sg69
S'C:\\Program Files (x86)\\PyScripter\\Lib\\rpyc.zip\\rpyc\\lib\\colls'
p199
sg71
g13
(g14
g15
NtRp200
(dp201
g18
I1
sg19
I0
sg20
I86
sg21
I0
sg22
I0
sg23
I78
sg24
I0
sbssg74
S'\x7f|\xdc)\xadR,I\x9d\x1a\xaeC7]s\xd6'
p202
ssS'test_string'
p203
(dp204
g6
(dp205
g139
S'test_string.html'
p206
sg141
S'test_string'
p207
sg143
g13
(g14
g15
NtRp208
(dp209
g18
I1
sg19
I0
sg20
I45
sg21
I0
sg22
I0
sg23
I1
sg24
I0
sbssg25
S'D\xcb\x85$\x8c~\x87\xc8\x0e\x17h[Z-\x89\x9a'
p210
ssS'resolve'
p211
(dp212
g6
(dp213
g8
S'resolve.html'
p214
sg10
g211
sg12
g13
(g14
g15
NtRp215
(dp216
g18
I1
sg19
I0
sg20
I61
sg21
I0
sg22
I0
sg23
I1
sg24
I0
sbssg25
S"C\x91\xda'\xa9\x8a92^'\t\xf3\xa9\xbdt\xdb"
p217
ssS'test_backtraking'
p218
(dp219
g6
(dp220
g8
S'test_backtraking.html'
p221
sg10
g218
sg12
g13
(g14
g15
NtRp222
(dp223
g18
I1
sg19
I0
sg20
I80
sg21
I0
sg22
I0
sg23
I1
sg24
I0
sbssg25
S'\xb4S\xb2i\r\xc3MA\xd4;\x85hO\x11\x00\xf0'
p224
ssS'peter_algorithm'
p225
(dp226
g102
(dp227
g104
S'peter_algorithm.html'
p228
sg106
g225
sg107
g13
(g14
g15
NtRp229
(dp230
g18
I1
sg19
I0
sg20
I89
sg21
I0
sg22
I0
sg23
I18
sg24
I0
sbssg110
S'\x07W\x8cr5\xee\xda\xab\x8f\xdb\x95\x1e\xb4\x84F\xb5'
p231
ssS'peter_norving_algoritmo'
p232
(dp233
g6
(dp234
g8
S'peter_norving_algoritmo.html'
p235
sg10
g232
sg12
g13
(g14
g15
NtRp236
(dp237
g18
I1
sg19
I0
sg20
I89
sg21
I0
sg22
I0
sg23
I18
sg24
I0
sbssg25
S'\xb0\tfO>%\xca\xc4\x8b<\x05\xcf\x85\x19\xb8\xde'
p238
ssS'_Program Files (x86)_PyScripter_Lib_rpyc_zip_rpyc_core_channel'
p239
(dp240
g65
(dp241
g67
S'_Program Files (x86)_PyScripter_Lib_rpyc_zip_rpyc_core_channel.html'
p242
sg69
S'C:\\Program Files (x86)\\PyScripter\\Lib\\rpyc.zip\\rpyc\\core\\channel'
p243
sg71
g13
(g14
g15
NtRp244
(dp245
g18
I1
sg19
I0
sg20
I37
sg21
I0
sg22
I0
sg23
I26
sg24
I0
sbssg74
S'\xe8\x01\x94\xe0\x97\xbdl\xc7\x80\x8d\xb5ZLV\x0b\x85'
p246
ssS'position'
p247
(dp248
g6
(dp249
g67
S'position.html'
p250
sg69
S'position'
p251
sg71
g13
(g14
g15
NtRp252
(dp253
g18
I1
sg19
I0
sg20
I38
sg21
I0
sg22
I0
sg23
I0
sg24
I0
sbssg25
S'R\x14@d\xa3Qk\n\x89\xea\x91\x19rU\x86\xf2'
p254
sssS'version'
p255
S'3.6'
p256
sS'settings'
p257
S'1\xda>w\x0c\x99\xf8\xf9y-*\xeb\x80\xe1A\x99'
p258
sS'format'
p259
I1
s.